target datalayout = "e-m:e-p270:32:32-p271:32:32-p272:64:64-i64:64-i128:128-f80:128-n8:16:32:64-S128"
target triple = "x86_64-pc-linux-gnu"

%class.Thread = type { %class.ThreadShadow.base, i64, [43 x i64], ptr, ptr, i32, ptr, i64, i64, %class.ThreadLocalAllocBuffer, i64, %class.ThreadHeapSampler, %class.ThreadStatisticalInfo, %class.JfrThreadLocal, ptr, ptr, ptr, ptr, ptr, ptr, i64, i32, i32, ptr, i32, i32, i32, i32, i8, ptr }
%class.ThreadShadow.base = type <{ ptr, ptr, ptr, i32 }>
%class.ThreadLocalAllocBuffer = type <{ ptr, ptr, ptr, ptr, ptr, i64, i64, i64, i64, i32, i32, i32, i32, i64, %class.AdaptiveWeightedAverage, [4 x i8] }>
%class.AdaptiveWeightedAverage = type { float, i32, i32, i8, float }
%class.ThreadHeapSampler = type { i64 }
%class.ThreadStatisticalInfo = type { i64, i64 }
%class.JfrThreadLocal = type <{ ptr, ptr, ptr, ptr, ptr, ptr, ptr, ptr, ptr, ptr, %class.RefCountHandle, i64, i64, i64, i64, i64, i64, i64, i64, i64, i64, i64, i32, i32, i32, i16, i8, i8, i8, i8, i8, [5 x i8] }>
%class.RefCountHandle = type { ptr }

@UseTLAB = external global i8, align 1
@ResizeTLAB = external global i8, align 1

; Function Attrs: mustprogress nounwind uwtable
define linkonce_odr hidden void @_ZN22ThreadLocalAllocBuffer12addresses_doIPFvPPP12HeapWordImplEEEvT_(ptr noundef nonnull align 8 dereferenceable(116) %0, ptr noundef %1) #1 comdat align 2 {
  %3 = alloca ptr, align 8
  %4 = alloca ptr, align 8
  store ptr %0, ptr %3, align 8
  store ptr %1, ptr %4, align 8
  %5 = load ptr, ptr %3, align 8
  %6 = load ptr, ptr %4, align 8
  %7 = getelementptr inbounds %class.ThreadLocalAllocBuffer, ptr %5, i32 0, i32 0
  call void %6(ptr noundef %7)
  %8 = load ptr, ptr %4, align 8
  %9 = getelementptr inbounds %class.ThreadLocalAllocBuffer, ptr %5, i32 0, i32 1
  call void %8(ptr noundef %9)
  %10 = load ptr, ptr %4, align 8
  %11 = getelementptr inbounds %class.ThreadLocalAllocBuffer, ptr %5, i32 0, i32 2
  call void %10(ptr noundef %11)
  %12 = load ptr, ptr %4, align 8
  %13 = getelementptr inbounds %class.ThreadLocalAllocBuffer, ptr %5, i32 0, i32 3
  call void %12(ptr noundef %13)
  %14 = load ptr, ptr %4, align 8
  %15 = getelementptr inbounds %class.ThreadLocalAllocBuffer, ptr %5, i32 0, i32 4
  call void %14(ptr noundef %15)
  ret void
}

; Function Attrs: mustprogress nounwind uwtable
define linkonce_odr hidden noundef nonnull align 8 dereferenceable(116) ptr @_ZN6Thread4tlabEv(ptr noundef nonnull align 8 dereferenceable(888) %0) #1 comdat align 2 {
  %2 = alloca ptr, align 8
  store ptr %0, ptr %2, align 8
  %3 = load ptr, ptr %2, align 8
  %4 = getelementptr inbounds %class.Thread, ptr %3, i32 0, i32 9
  ret ptr %4
}

; Function Attrs: mustprogress nounwind uwtable
define hidden void @_ZN23XThreadLocalAllocBuffer6retireEP10JavaThreadP21ThreadLocalAllocStats(ptr noundef %0, ptr noundef %1) #1 align 2 {
  %3 = alloca ptr, align 8
  %4 = alloca ptr, align 8
  store ptr %0, ptr %3, align 8
  store ptr %1, ptr %4, align 8
  %5 = load i8, ptr @UseTLAB, align 1
  %6 = trunc i8 %5 to i1
  br i1 %6, label %7, label %20

7:                                                ; preds = %2
  %8 = load ptr, ptr %4, align 8
  call void @_ZN21ThreadLocalAllocStats5resetEv(ptr noundef nonnull align 8 dereferenceable(64) %8)
  %9 = load ptr, ptr %3, align 8
  %10 = call noundef nonnull align 8 dereferenceable(116) ptr @_ZN6Thread4tlabEv(ptr noundef nonnull align 8 dereferenceable(888) %9)
  call void @_ZN22ThreadLocalAllocBuffer12addresses_doIPFvPPP12HeapWordImplEEEvT_(ptr noundef nonnull align 8 dereferenceable(116) %10, ptr noundef @_ZL13fixup_addressPPP12HeapWordImpl)
  %11 = load ptr, ptr %3, align 8
  %12 = call noundef nonnull align 8 dereferenceable(116) ptr @_ZN6Thread4tlabEv(ptr noundef nonnull align 8 dereferenceable(888) %11)
  %13 = load ptr, ptr %4, align 8
  call void @_ZN22ThreadLocalAllocBuffer6retireEP21ThreadLocalAllocStats(ptr noundef nonnull align 8 dereferenceable(116) %12, ptr noundef %13)
  %14 = load i8, ptr @ResizeTLAB, align 1
  %15 = trunc i8 %14 to i1
  br i1 %15, label %16, label %19

16:                                               ; preds = %7
  %17 = load ptr, ptr %3, align 8
  %18 = call noundef nonnull align 8 dereferenceable(116) ptr @_ZN6Thread4tlabEv(ptr noundef nonnull align 8 dereferenceable(888) %17)
  call void @_ZN22ThreadLocalAllocBuffer6resizeEv(ptr noundef nonnull align 8 dereferenceable(116) %18)
  br label %19

19:                                               ; preds = %16, %7
  br label %20

20:                                               ; preds = %19, %2
  ret void
}