; Function Attrs: mustprogress nounwind uwtable
define hidden void @_ZN23XThreadLocalAllocBuffer6retireEP10JavaThreadP21ThreadLocalAllocStats(ptr noundef %0, ptr noundef %1) local_unnamed_addr #0 align 2 {
  %3 = load i8, ptr @UseTLAB, align 1
  %4 = trunc i8 %3 to i1
  br i1 %4, label %5, label %39

5:                                                ; preds = %2
  tail call void @_ZN21ThreadLocalAllocStats5resetEv(ptr noundef nonnull align 8 dereferenceable(64) %1) #6
  %6 = getelementptr inbounds i8, ptr %0, i64 432
  %7 = load i64, ptr @XAddressOffsetMask, align 8
  %8 = load i64, ptr @XAddressGoodMask, align 8
  %9 = load <2 x ptr>, ptr %6, align 8
  %10 = ptrtoint <2 x ptr> %9 to <2 x i64>
  %11 = icmp eq <2 x ptr> %9, zeroinitializer
  %12 = insertelement <2 x i64> poison, i64 %7, i64 0
  %13 = shufflevector <2 x i64> %12, <2 x i64> poison, <2 x i32> zeroinitializer
  %14 = and <2 x i64> %13, %10
  %15 = insertelement <2 x i64> poison, i64 %8, i64 0
  %16 = shufflevector <2 x i64> %15, <2 x i64> poison, <2 x i32> zeroinitializer
  %17 = or <2 x i64> %14, %16
  %18 = inttoptr <2 x i64> %17 to <2 x ptr>
  %19 = select <2 x i1> %11, <2 x ptr> zeroinitializer, <2 x ptr> %18
  store <2 x ptr> %19, ptr %6, align 8
  %20 = getelementptr inbounds i8, ptr %0, i64 448
  %21 = load <2 x ptr>, ptr %20, align 8
  %22 = ptrtoint <2 x ptr> %21 to <2 x i64>
  %23 = icmp eq <2 x ptr> %21, zeroinitializer
  %24 = and <2 x i64> %13, %22
  %25 = or <2 x i64> %24, %16
  %26 = inttoptr <2 x i64> %25 to <2 x ptr>
  %27 = select <2 x i1> %23, <2 x ptr> zeroinitializer, <2 x ptr> %26
  store <2 x ptr> %27, ptr %20, align 8
  %28 = getelementptr inbounds i8, ptr %0, i64 464
  %29 = load ptr, ptr %28, align 8
  %30 = ptrtoint ptr %29 to i64
  %31 = icmp eq ptr %29, null
  %32 = and i64 %7, %30
  %33 = or i64 %32, %8
  %34 = inttoptr i64 %33 to ptr
  %35 = select i1 %31, ptr null, ptr %34
  store ptr %35, ptr %28, align 8
  tail call void @_ZN22ThreadLocalAllocBuffer6retireEP21ThreadLocalAllocStats(ptr noundef nonnull align 8 dereferenceable(116) %6, ptr noundef nonnull %1) #6
  %36 = load i8, ptr @ResizeTLAB, align 1
  %37 = trunc i8 %36 to i1
  br i1 %37, label %38, label %39

38:                                               ; preds = %5
  tail call void @_ZN22ThreadLocalAllocBuffer6resizeEv(ptr noundef nonnull align 8 dereferenceable(116) %6) #6
  br label %39

39:                                               ; preds = %5, %38, %2
  ret void
}